target datalayout = "e-m:e-p270:32:32-p271:32:32-p272:64:64-i64:64-i128:128-f80:128-n8:16:32:64-S128"
target triple = "x86_64-pc-linux-gnu"

%struct.Qureg = type { i32, i32, i32, i64, i64, i32, i32, %struct.ComplexArray, %struct.ComplexArray, %struct.ComplexArray, ptr, ptr, ptr, ptr, ptr, ptr }
%struct.ComplexArray = type { ptr, ptr }
%struct.ComplexMatrix2 = type { [2 x [2 x double]], [2 x [2 x double]] }

@__func__.multiControlledUnitary = private unnamed_addr constant [23 x i8] c"multiControlledUnitary\00", align 1

; Function Attrs: nounwind uwtable
define void @multiControlledUnitary(ptr noundef byval(%struct.Qureg) align 8 %0, ptr noundef %1, i32 noundef %2, i32 noundef %3, ptr noundef byval(%struct.ComplexMatrix2) align 8 %4) #0 {
  %6 = alloca ptr, align 8
  %7 = alloca i32, align 4
  %8 = alloca i32, align 4
  %9 = alloca i64, align 8
  %10 = alloca i64, align 8
  %11 = alloca i32, align 4
  %12 = alloca %struct.ComplexMatrix2, align 8
  store ptr %1, ptr %6, align 8, !tbaa !27
  store i32 %2, ptr %7, align 4, !tbaa !4
  store i32 %3, ptr %8, align 4, !tbaa !4
  %13 = load ptr, ptr %6, align 8, !tbaa !27
  %14 = load i32, ptr %7, align 4, !tbaa !4
  %15 = load i32, ptr %8, align 4, !tbaa !4
  call void @validateMultiControlsTarget(ptr noundef byval(%struct.Qureg) align 8 %0, ptr noundef %13, i32 noundef %14, i32 noundef %15, ptr noundef @__func__.multiControlledUnitary)
  call void @validateOneQubitUnitaryMatrix(ptr noundef byval(%struct.ComplexMatrix2) align 8 %4, ptr noundef @__func__.multiControlledUnitary)
  call void @llvm.lifetime.start.p0(i64 8, ptr %9) #7
  %16 = load ptr, ptr %6, align 8, !tbaa !27
  %17 = load i32, ptr %7, align 4, !tbaa !4
  %18 = call i64 @getQubitBitMask(ptr noundef %16, i32 noundef %17)
  store i64 %18, ptr %9, align 8, !tbaa !22
  call void @llvm.lifetime.start.p0(i64 8, ptr %10) #7
  store i64 0, ptr %10, align 8, !tbaa !22
  %19 = load i64, ptr %9, align 8, !tbaa !22
  %20 = load i64, ptr %10, align 8, !tbaa !22
  %21 = load i32, ptr %8, align 4, !tbaa !4
  call void @statevec_multiControlledUnitary(ptr noundef byval(%struct.Qureg) align 8 %0, i64 noundef %19, i64 noundef %20, i32 noundef %21, ptr noundef byval(%struct.ComplexMatrix2) align 8 %4)
  %22 = getelementptr inbounds nuw %struct.Qureg, ptr %0, i32 0, i32 0
  %23 = load i32, ptr %22, align 8, !tbaa !13
  %24 = icmp ne i32 %23, 0
  br i1 %24, label %25, label %39

25:                                               ; preds = %5
  call void @llvm.lifetime.start.p0(i64 4, ptr %11) #7
  %26 = getelementptr inbounds nuw %struct.Qureg, ptr %0, i32 0, i32 1
  %27 = load i32, ptr %26, align 4, !tbaa !18
  store i32 %27, ptr %11, align 4, !tbaa !4
  %28 = load i64, ptr %9, align 8, !tbaa !22
  %29 = load i32, ptr %11, align 4, !tbaa !4
  %30 = zext i32 %29 to i64
  %31 = shl i64 %28, %30
  %32 = load i64, ptr %10, align 8, !tbaa !22
  %33 = load i32, ptr %11, align 4, !tbaa !4
  %34 = zext i32 %33 to i64
  %35 = shl i64 %32, %34
  %36 = load i32, ptr %8, align 4, !tbaa !4
  %37 = load i32, ptr %11, align 4, !tbaa !4
  %38 = add nsw i32 %36, %37
  call void @getConjugateMatrix2(ptr dead_on_unwind writable sret(%struct.ComplexMatrix2) align 8 %12, ptr noundef byval(%struct.ComplexMatrix2) align 8 %4)
  call void @statevec_multiControlledUnitary(ptr noundef byval(%struct.Qureg) align 8 %0, i64 noundef %31, i64 noundef %35, i32 noundef %38, ptr noundef byval(%struct.ComplexMatrix2) align 8 %12)
  call void @llvm.lifetime.end.p0(i64 4, ptr %11) #7
  br label %39

39:                                               ; preds = %25, %5
  %40 = load ptr, ptr %6, align 8, !tbaa !27
  %41 = load i32, ptr %7, align 4, !tbaa !4
  %42 = load i32, ptr %8, align 4, !tbaa !4
  call void @qasm_recordMultiControlledUnitary(ptr noundef byval(%struct.Qureg) align 8 %0, ptr noundef byval(%struct.ComplexMatrix2) align 8 %4, ptr noundef %40, i32 noundef %41, i32 noundef %42)
  call void @llvm.lifetime.end.p0(i64 8, ptr %10) #7
  call void @llvm.lifetime.end.p0(i64 8, ptr %9) #7
  ret void
}