; Function Attrs: nounwind uwtable
define void @multiControlledUnitary(ptr noundef readonly byval(%struct.Qureg) align 8 captures(none) %0, ptr noundef %1, i32 noundef %2, i32 noundef %3, ptr noundef readonly byval(%struct.ComplexMatrix2) align 8 captures(none) %4) local_unnamed_addr #0 {
  %6 = alloca %struct.ComplexMatrix2, align 8
  tail call void @validateMultiControlsTarget(ptr noundef nonnull byval(%struct.Qureg) align 8 %0, ptr noundef %1, i32 noundef %2, i32 noundef %3, ptr noundef nonnull @__func__.multiControlledUnitary) #17
  tail call void @validateOneQubitUnitaryMatrix(ptr noundef nonnull byval(%struct.ComplexMatrix2) align 8 %4, ptr noundef nonnull @__func__.multiControlledUnitary) #17
  %7 = tail call i64 @getQubitBitMask(ptr noundef %1, i32 noundef %2) #17
  tail call void @statevec_multiControlledUnitary(ptr noundef nonnull byval(%struct.Qureg) align 8 %0, i64 noundef %7, i64 noundef 0, i32 noundef %3, ptr noundef nonnull byval(%struct.ComplexMatrix2) align 8 %4) #17
  %8 = load i32, ptr %0, align 8, !tbaa !12
  %.not = icmp eq i32 %8, 0
  br i1 %.not, label %15, label %9

9:                                                ; preds = %5
  %10 = getelementptr inbounds nuw i8, ptr %0, i64 4
  %11 = load i32, ptr %10, align 4, !tbaa !17
  %12 = zext nneg i32 %11 to i64
  %13 = shl i64 %7, %12
  %14 = add nsw i32 %11, %3
  call void @getConjugateMatrix2(ptr dead_on_unwind nonnull writable sret(%struct.ComplexMatrix2) align 8 %6, ptr noundef nonnull byval(%struct.ComplexMatrix2) align 8 %4) #17
  call void @statevec_multiControlledUnitary(ptr noundef nonnull byval(%struct.Qureg) align 8 %0, i64 noundef %13, i64 noundef 0, i32 noundef %14, ptr noundef nonnull byval(%struct.ComplexMatrix2) align 8 %6) #17
  br label %15

15:                                               ; preds = %9, %5
  call void @qasm_recordMultiControlledUnitary(ptr noundef nonnull byval(%struct.Qureg) align 8 %0, ptr noundef nonnull byval(%struct.ComplexMatrix2) align 8 %4, ptr noundef %1, i32 noundef %2, i32 noundef %3) #17
  ret void
}